#include <math.h>
#include <stdio.h>
#include <stdlib.h>
#include <string.h>

main()
{
      int w;
      scanf("%d",&w);
      if((w+12)%7==5)
       printf("1\n");
      w=w+12;
      if((w+31)%7==5)
       printf("2\n");
      w=w+31;
      if((w+28)%7==5)
       printf("3\n");
      w=w+28;
      if((w+31)%7==5)
       printf("4\n");
      w=w+31;
      if((w+30)%7==5)
       printf("5\n");
      w=w+30;
      if((w+31)%7==5)
       printf("6\n");
      w=w+31;
      if((w+30)%7==5)
       printf("7\n");
      w=w+30;
      if((w+31)%7==5)
       printf("8\n");
      w=w+31;
      if((w+31)%7==5)
       printf("9\n");
      w=w+31;
      if((w+30)%7==5)
       printf("10\n");
      w=w+30;
      if((w+31)%7==5)
       printf("11\n");
      w=w+31;
      if((w+30)%7==5)
       printf("12\n");
}